target datalayout = "e-m:e-p270:32:32-p271:32:32-p272:64:64-i64:64-i128:128-f80:128-n8:16:32:64-S128"
target triple = "x86_64-pc-linux-gnu"

%union.SourceSpan = type { i64 }
%struct.GenContext_ = type { i8, ptr, ptr, ptr, ptr, ptr, ptr, ptr, ptr, ptr, ptr, ptr, ptr, ptr, ptr, ptr, ptr, ptr, ptr, ptr, ptr, ptr, ptr, ptr, ptr, ptr, ptr, ptr, ptr, ptr, ptr, ptr, ptr, %struct.anon.85, i32, i32, %struct.DebugContext, ptr, ptr, ptr, %struct.BEValue, i8, %union.SourceSpan, ptr, ptr, ptr, ptr }
%struct.anon.85 = type { ptr, ptr, ptr }
%struct.DebugContext = type { i16, ptr, ptr, %struct.DebugFile_, ptr, ptr, ptr, ptr }
%struct.DebugFile_ = type { i16, ptr }
%struct.BEValue = type { i8, i32, ptr, ptr, ptr }

; Function Attrs: nounwind uwtable
define internal i32 @aligned_offset(i32 noundef %0, i32 noundef %1) #0 {
  %3 = alloca i32, align 4
  %4 = alloca i32, align 4
  store i32 %0, ptr %3, align 4
  store i32 %1, ptr %4, align 4
  %5 = load i32, ptr %3, align 4
  %6 = load i32, ptr %4, align 4
  %7 = add i32 %5, %6
  %8 = sub i32 %7, 1
  %9 = load i32, ptr %4, align 4
  %10 = udiv i32 %8, %9
  %11 = load i32, ptr %4, align 4
  %12 = mul i32 %10, %11
  ret i32 %12
}

; Function Attrs: nounwind uwtable
define dso_local i32 @llvm_abi_alignment(ptr noundef %0, ptr noundef %1) #0 {
  %3 = alloca ptr, align 8
  %4 = alloca ptr, align 8
  store ptr %0, ptr %3, align 8
  store ptr %1, ptr %4, align 8
  %5 = load ptr, ptr %3, align 8
  %6 = getelementptr inbounds %struct.GenContext_, ptr %5, i32 0, i32 4
  %7 = load ptr, ptr %6, align 8
  %8 = load ptr, ptr %4, align 8
  %9 = call i32 @LLVMABIAlignmentOfType(ptr noundef %7, ptr noundef %8)
  ret i32 %9
}

; Function Attrs: nounwind uwtable
define dso_local i32 @llvm_alloc_size(ptr noundef %0, ptr noundef %1) #0 {
  %3 = alloca ptr, align 8
  %4 = alloca ptr, align 8
  store ptr %0, ptr %3, align 8
  store ptr %1, ptr %4, align 8
  %5 = load ptr, ptr %3, align 8
  %6 = getelementptr inbounds %struct.GenContext_, ptr %5, i32 0, i32 4
  %7 = load ptr, ptr %6, align 8
  %8 = load ptr, ptr %4, align 8
  %9 = call i64 @LLVMABISizeOfType(ptr noundef %7, ptr noundef %8)
  %10 = trunc i64 %9 to i32
  %11 = load ptr, ptr %3, align 8
  %12 = load ptr, ptr %4, align 8
  %13 = call i32 @llvm_abi_alignment(ptr noundef %11, ptr noundef %12)
  %14 = call i32 @aligned_offset(i32 noundef %10, i32 noundef %13)
  ret i32 %14
}