; Function Attrs: nounwind uwtable
define dso_local i32 @llvm_alloc_size(ptr nocapture noundef readonly %0, ptr noundef %1) local_unnamed_addr #0 {
  %3 = getelementptr inbounds i8, ptr %0, i64 32
  %4 = load ptr, ptr %3, align 8
  %5 = tail call i64 @LLVMABISizeOfType(ptr noundef %4, ptr noundef %1) #10
  %6 = trunc i64 %5 to i32
  %7 = load ptr, ptr %3, align 8
  %8 = tail call i32 @LLVMABIAlignmentOfType(ptr noundef %7, ptr noundef %1) #10
  %9 = add i32 %6, -1
  %10 = add i32 %9, %8
  %11 = urem i32 %10, %8
  %12 = sub nuw i32 %10, %11
  ret i32 %12
}